; ModuleID = '43/115.c'
source_filename = "43/115.c"
target datalayout = "e-m:e-p270:32:32-p271:32:32-p272:64:64-i64:64-f80:128-n8:16:32:64-S128"
target triple = "x86_64-pc-linux-gnu"

@.str = private unnamed_addr constant [3 x i8] c"%d\00", align 1
@.str.1 = private unnamed_addr constant [7 x i8] c"%d %d\0A\00", align 1

; Function Attrs: noinline nounwind uwtable
define dso_local i32 @main() #0 {
  %1 = alloca i32, align 4
  %2 = alloca i32, align 4
  %3 = alloca i32, align 4
  %4 = alloca i32, align 4
  %5 = alloca i32, align 4
  %6 = alloca i32, align 4
  %7 = alloca i32, align 4
  %8 = alloca i32, align 4
  store i32 0, i32* %1, align 4
  %9 = call i32 (i8*, ...) @__isoc99_scanf(i8* getelementptr inbounds ([3 x i8], [3 x i8]* @.str, i64 0, i64 0), i32* %2)
  %10 = load i32, i32* %2, align 4
  %11 = sdiv i32 %10, 2
  store i32 %11, i32* %5, align 4
  store i32 3, i32* %4, align 4
  br label %12

12:                                               ; preds = %34, %0
  %13 = load i32, i32* %4, align 4
  %14 = load i32, i32* %5, align 4
  %15 = icmp sle i32 %13, %14
  br i1 %15, label %16, label %37

16:                                               ; preds = %12
  %17 = load i32, i32* %2, align 4
  %18 = load i32, i32* %4, align 4
  %19 = sub nsw i32 %17, %18
  store i32 %19, i32* %6, align 4
  %20 = load i32, i32* %4, align 4
  %21 = call i32 @f(i32 %20)
  store i32 %21, i32* %7, align 4
  %22 = load i32, i32* %6, align 4
  %23 = call i32 @f(i32 %22)
  store i32 %23, i32* %8, align 4
  %24 = load i32, i32* %7, align 4
  %25 = icmp eq i32 %24, 2
  br i1 %25, label %26, label %33

26:                                               ; preds = %16
  %27 = load i32, i32* %8, align 4
  %28 = icmp eq i32 %27, 2
  br i1 %28, label %29, label %33

29:                                               ; preds = %26
  %30 = load i32, i32* %4, align 4
  %31 = load i32, i32* %6, align 4
  %32 = call i32 (i8*, ...) @printf(i8* getelementptr inbounds ([7 x i8], [7 x i8]* @.str.1, i64 0, i64 0), i32 %30, i32 %31)
  br label %33

33:                                               ; preds = %29, %26, %16
  br label %34

34:                                               ; preds = %33
  %35 = load i32, i32* %4, align 4
  %36 = add nsw i32 %35, 1
  store i32 %36, i32* %4, align 4
  br label %12

37:                                               ; preds = %12
  %38 = load i32, i32* %1, align 4
  ret i32 %38
}

declare dso_local i32 @__isoc99_scanf(i8*, ...) #1

; Function Attrs: noinline nounwind uwtable
define dso_local i32 @f(i32 %0) #0 {
  %2 = alloca i32, align 4
  %3 = alloca i32, align 4
  %4 = alloca i32, align 4
  store i32 %0, i32* %2, align 4
  store i32 0, i32* %4, align 4
  store i32 1, i32* %3, align 4
  br label %5

5:                                                ; preds = %18, %1
  %6 = load i32, i32* %3, align 4
  %7 = load i32, i32* %2, align 4
  %8 = icmp sle i32 %6, %7
  br i1 %8, label %9, label %21

9:                                                ; preds = %5
  %10 = load i32, i32* %2, align 4
  %11 = load i32, i32* %3, align 4
  %12 = srem i32 %10, %11
  %13 = icmp eq i32 %12, 0
  br i1 %13, label %14, label %17

14:                                               ; preds = %9
  %15 = load i32, i32* %4, align 4
  %16 = add nsw i32 %15, 1
  store i32 %16, i32* %4, align 4
  br label %17

17:                                               ; preds = %14, %9
  br label %18

18:                                               ; preds = %17
  %19 = load i32, i32* %3, align 4
  %20 = add nsw i32 %19, 1
  store i32 %20, i32* %3, align 4
  br label %5

21:                                               ; preds = %5
  %22 = load i32, i32* %4, align 4
  ret i32 %22
}

declare dso_local i32 @printf(i8*, ...) #1


!llvm.module.flags = !{!0}
!llvm.ident = !{!1}

!0 = !{i32 1, !"wchar_size", i32 4}
!1 = !{!"clang version 10.0.0-4ubuntu1 "}
